; ModuleID = 'source-C-CXX/61/200.c'
source_filename = "source-C-CXX/61/200.c"
target datalayout = "e-m:e-p270:32:32-p271:32:32-p272:64:64-i64:64-f80:128-n8:16:32:64-S128"
target triple = "x86_64-pc-linux-gnu"

; Function Attrs: nounwind sspstrong uwtable
define dso_local i32 @main() local_unnamed_addr #0 {
  %1 = alloca [200 x i8], align 16
  %2 = alloca [200 x i8], align 16
  %3 = getelementptr inbounds [200 x i8], [200 x i8]* %1, i64 0, i64 0
  call void @llvm.lifetime.start.p0i8(i64 200, i8* nonnull %3) #6
  %4 = getelementptr inbounds [200 x i8], [200 x i8]* %2, i64 0, i64 0
  call void @llvm.lifetime.start.p0i8(i64 200, i8* nonnull %4) #6
  %5 = call i32 (i8*, ...) bitcast (i32 (...)* @gets to i32 (i8*, ...)*)(i8* nonnull %3) #6
  %6 = call i64 @strlen(i8* noundef nonnull %3) #7
  %7 = trunc i64 %6 to i32
  %8 = icmp sgt i32 %7, 0
  br i1 %8, label %9, label %66

9:                                                ; preds = %0
  %10 = and i64 %6, 4294967295
  br label %11

11:                                               ; preds = %9, %19
  %12 = phi i64 [ %10, %9 ], [ %21, %19 ]
  %13 = phi i32 [ %7, %9 ], [ %14, %19 ]
  %14 = add nsw i32 %13, -1
  %15 = zext i32 %14 to i64
  %16 = getelementptr inbounds [200 x i8], [200 x i8]* %1, i64 0, i64 %15
  %17 = load i8, i8* %16, align 1, !tbaa !5
  %18 = icmp eq i8 %17, 32
  br i1 %18, label %19, label %22

19:                                               ; preds = %11
  %20 = icmp sgt i64 %12, 1
  %21 = add nsw i64 %12, -1
  br i1 %20, label %11, label %66, !llvm.loop !8

22:                                               ; preds = %11
  %23 = icmp sgt i32 %13, 0
  br i1 %23, label %24, label %66

24:                                               ; preds = %22
  %25 = add nsw i32 %13, -1
  br label %31

26:                                               ; preds = %53
  %27 = trunc i64 %55 to i32
  %28 = icmp eq i32 %27, 0
  br i1 %28, label %66, label %29

29:                                               ; preds = %26
  %30 = and i64 %55, 4294967295
  br label %58

31:                                               ; preds = %24, %53
  %32 = phi i64 [ 0, %24 ], [ %55, %53 ]
  %33 = phi i32 [ 0, %24 ], [ %56, %53 ]
  %34 = sext i32 %33 to i64
  %35 = getelementptr inbounds [200 x i8], [200 x i8]* %1, i64 0, i64 %34
  %36 = load i8, i8* %35, align 1, !tbaa !5
  %37 = icmp eq i8 %36, 32
  %38 = getelementptr inbounds [200 x i8], [200 x i8]* %2, i64 0, i64 %32
  br i1 %37, label %40, label %39

39:                                               ; preds = %31
  store i8 %36, i8* %38, align 1, !tbaa !5
  br label %53

40:                                               ; preds = %31
  store i8 32, i8* %38, align 1, !tbaa !5
  %41 = call i32 @llvm.smax.i32(i32 %33, i32 %25)
  %42 = sext i32 %41 to i64
  br label %43

43:                                               ; preds = %46, %40
  %44 = phi i64 [ %47, %46 ], [ %34, %40 ]
  %45 = icmp eq i64 %44, %42
  br i1 %45, label %53, label %46

46:                                               ; preds = %43
  %47 = add nsw i64 %44, 1
  %48 = getelementptr inbounds [200 x i8], [200 x i8]* %1, i64 0, i64 %47
  %49 = load i8, i8* %48, align 1, !tbaa !5
  %50 = icmp eq i8 %49, 32
  br i1 %50, label %43, label %51, !llvm.loop !10

51:                                               ; preds = %46
  %52 = trunc i64 %44 to i32
  br label %53

53:                                               ; preds = %43, %51, %39
  %54 = phi i32 [ %33, %39 ], [ %52, %51 ], [ %41, %43 ]
  %55 = add nuw i64 %32, 1
  %56 = add nsw i32 %54, 1
  %57 = icmp slt i32 %56, %13
  br i1 %57, label %31, label %26, !llvm.loop !11

58:                                               ; preds = %29, %58
  %59 = phi i64 [ 0, %29 ], [ %64, %58 ]
  %60 = getelementptr inbounds [200 x i8], [200 x i8]* %2, i64 0, i64 %59
  %61 = load i8, i8* %60, align 1, !tbaa !5
  %62 = sext i8 %61 to i32
  %63 = call i32 @putchar(i32 %62)
  %64 = add nuw nsw i64 %59, 1
  %65 = icmp eq i64 %64, %30
  br i1 %65, label %66, label %58, !llvm.loop !12

66:                                               ; preds = %19, %58, %0, %22, %26
  call void @llvm.lifetime.end.p0i8(i64 200, i8* nonnull %4) #6
  call void @llvm.lifetime.end.p0i8(i64 200, i8* nonnull %3) #6
  ret i32 0
}

; Function Attrs: argmemonly mustprogress nofree nosync nounwind willreturn
declare void @llvm.lifetime.start.p0i8(i64 immarg, i8* nocapture) #1

declare i32 @gets(...) local_unnamed_addr #2

; Function Attrs: argmemonly mustprogress nofree nounwind readonly willreturn
declare i64 @strlen(i8* nocapture) local_unnamed_addr #3

; Function Attrs: argmemonly mustprogress nofree nosync nounwind willreturn
declare void @llvm.lifetime.end.p0i8(i64 immarg, i8* nocapture) #1

; Function Attrs: nofree nounwind
declare noundef i32 @putchar(i32 noundef) local_unnamed_addr #4

; Function Attrs: nofree nosync nounwind readnone speculatable willreturn
declare i32 @llvm.smax.i32(i32, i32) #5


!llvm.module.flags = !{!0, !1, !2, !3}
!llvm.ident = !{!4}

!0 = !{i32 1, !"wchar_size", i32 4}
!1 = !{i32 7, !"PIC Level", i32 2}
!2 = !{i32 7, !"PIE Level", i32 2}
!3 = !{i32 7, !"uwtable", i32 1}
!4 = !{!"clang version 13.0.0"}
!5 = !{!6, !6, i64 0}
!6 = !{!"omnipotent char", !7, i64 0}
!7 = !{!"Simple C/C++ TBAA"}
!8 = distinct !{!8, !9}
!9 = !{!"llvm.loop.mustprogress"}
!10 = distinct !{!10, !9}
!11 = distinct !{!11, !9}
!12 = distinct !{!12, !9}
